target datalayout = "e-m:e-p270:32:32-p271:32:32-p272:64:64-i64:64-i128:128-f80:128-n8:16:32:64-S128"
target triple = "x86_64-unknown-linux-gnu"

%struct.BlockDriverState = type { i32, i8, i8, i8, i8, i8, ptr, ptr, ptr, %struct.anon, i8, [4096 x i8], [4096 x i8], [4096 x i8], [16 x i8], ptr, [4096 x i8], %struct.BlockLimits, i32, i32, i32, i32, [32 x i8], %union.anon, %union.anon.0, %union.anon.1, i32, [16 x %struct.anon.2], ptr, %struct.anon.3, ptr, ptr, %struct.anon.4, ptr, ptr, i32, ptr, i64, i64, %struct.QemuMutex, %struct.anon.5, %struct.Stat64, i32, i32, i32, i32, i32, i32, %struct.QemuMutex, %struct.anon.6, %struct.CoQueue, i8, i32, i8, %struct.CoMutex, ptr, ptr }
%struct.anon = type { ptr }
%struct.BlockLimits = type { i32, i64, i32, i64, i32, i32, i32, i64, i32, i64, i64, i32, i8, i32, i32, i32, i32, i32, i32, i32 }
%union.anon = type { %struct.QTailQLink }
%struct.QTailQLink = type { ptr, ptr }
%union.anon.0 = type { %struct.QTailQLink }
%union.anon.1 = type { %struct.QTailQLink }
%struct.anon.2 = type { ptr }
%struct.anon.3 = type { ptr }
%struct.anon.4 = type { ptr }
%struct.anon.5 = type { ptr }
%struct.Stat64 = type { i64 }
%struct.QemuMutex = type { %union.pthread_mutex_t, i8 }
%union.pthread_mutex_t = type { %struct.__pthread_mutex_s }
%struct.__pthread_mutex_s = type { i32, i32, i32, i32, i32, i16, i16, %struct.__pthread_internal_list }
%struct.__pthread_internal_list = type { ptr, ptr }
%struct.anon.6 = type { ptr }
%struct.CoQueue = type { %struct.anon.7 }
%struct.anon.7 = type { ptr, ptr }
%struct.CoMutex = type { i32, ptr, %struct.anon.8, %struct.anon.8, i32, i32, ptr }
%struct.anon.8 = type { ptr }
%struct.BDRVQcow2State = type { i32, i32, i32, i32, i32, i32, i32, i32, i32, i32, i32, i32, i32, i32, i64, i64, ptr, ptr, ptr, ptr, i32, %struct.anon.9, ptr, i64, i32, i32, i64, i64, %struct.CoMutex, %struct.Qcow2CryptoHeaderExtension, ptr, ptr, i8, i32, i64, i32, i32, ptr, i32, i64, i64, i32, i32, i8, i32, i32, i64, ptr, ptr, [5 x i8], i8, i32, i8, i64, i64, i64, i64, ptr, %struct.anon.10, %union.anon.11, i8, ptr, ptr, ptr, %struct.CoQueue, i32, ptr, i8, i8, i32 }
%struct.anon.9 = type { ptr }
%struct.Qcow2CryptoHeaderExtension = type { i64, i64 }
%struct.anon.10 = type { ptr }
%union.anon.11 = type { %struct.QTailQLink }
%struct.BdrvChild = type { ptr, ptr, ptr, i32, ptr, i64, i64, i8, i8, %struct.anon.12, %struct.anon.13 }
%struct.anon.12 = type { ptr, ptr }
%struct.anon.13 = type { ptr, ptr }

@.str.125 = private unnamed_addr constant [103 x i8] c"/home/dtcxzyw/WorkSpace/Projects/compilers/llvm-opt-benchmark/bench/qemu/qemu/include/qemu/coroutine.h\00", align 1
@__func__.qemu_co_mutex_assert_locked = private unnamed_addr constant [28 x i8] c"qemu_co_mutex_assert_locked\00", align 1
@.str.126 = private unnamed_addr constant [71 x i8] c"qatomic_read(&mutex->locked) && mutex->holder == qemu_coroutine_self()\00", align 1
@__PRETTY_FUNCTION__.qemu_co_mutex_assert_locked = private unnamed_addr constant [44 x i8] c"void qemu_co_mutex_assert_locked(CoMutex *)\00", align 1

; Function Attrs: nounwind sspstrong uwtable
define internal i64 @size_to_clusters(ptr noundef %s, i64 noundef %size) #0 {
entry:
  %s.addr = alloca ptr, align 8
  %size.addr = alloca i64, align 8
  store ptr %s, ptr %s.addr, align 8
  store i64 %size, ptr %size.addr, align 8
  %0 = load i64, ptr %size.addr, align 8
  %1 = load ptr, ptr %s.addr, align 8
  %cluster_size = getelementptr inbounds %struct.BDRVQcow2State, ptr %1, i32 0, i32 1
  %2 = load i32, ptr %cluster_size, align 4
  %sub = sub i32 %2, 1
  %conv = sext i32 %sub to i64
  %add = add i64 %0, %conv
  %3 = load ptr, ptr %s.addr, align 8
  %cluster_bits = getelementptr inbounds %struct.BDRVQcow2State, ptr %3, i32 0, i32 0
  %4 = load i32, ptr %cluster_bits, align 8
  %sh_prom = zext i32 %4 to i64
  %shr = lshr i64 %add, %sh_prom
  ret i64 %shr
}

; Function Attrs: nounwind sspstrong uwtable
define internal void @qemu_co_mutex_assert_locked(ptr noundef %mutex) #0 {
entry:
  %mutex.addr = alloca ptr, align 8
  %tmp = alloca i32, align 4
  %atomic-temp = alloca i32, align 4
  store ptr %mutex, ptr %mutex.addr, align 8
  br label %while.cond

while.cond:                                       ; preds = %do.end, %entry
  br i1 false, label %while.body, label %while.end

while.body:                                       ; preds = %while.cond
  br label %do.body

do.body:                                          ; preds = %while.body
  call void @g_assertion_message_expr(ptr noundef null, ptr noundef @.str.125, i32 noundef 83, ptr noundef @__func__.qemu_co_mutex_assert_locked, ptr noundef null) #14
  unreachable

do.end:                                           ; No predecessors!
  br label %while.cond

while.end:                                        ; preds = %while.cond
  %0 = load ptr, ptr %mutex.addr, align 8
  %locked = getelementptr inbounds %struct.CoMutex, ptr %0, i32 0, i32 0
  %1 = load atomic i32, ptr %locked monotonic, align 8
  store i32 %1, ptr %atomic-temp, align 4
  %2 = load i32, ptr %atomic-temp, align 4
  store i32 %2, ptr %tmp, align 4
  %3 = load i32, ptr %tmp, align 4
  %tobool = icmp ne i32 %3, 0
  br i1 %tobool, label %land.lhs.true, label %if.else

land.lhs.true:                                    ; preds = %while.end
  %4 = load ptr, ptr %mutex.addr, align 8
  %holder = getelementptr inbounds %struct.CoMutex, ptr %4, i32 0, i32 6
  %5 = load ptr, ptr %holder, align 8
  %call = call ptr @qemu_coroutine_self()
  %cmp = icmp eq ptr %5, %call
  br i1 %cmp, label %if.then, label %if.else

if.then:                                          ; preds = %land.lhs.true
  br label %if.end

if.else:                                          ; preds = %land.lhs.true, %while.end
  call void @__assert_fail(ptr noundef @.str.126, ptr noundef @.str.125, i32 noundef 84, ptr noundef @__PRETTY_FUNCTION__.qemu_co_mutex_assert_locked) #10
  unreachable

if.end:                                           ; preds = %if.then
  ret void
}

; Function Attrs: nounwind sspstrong uwtable
define dso_local i32 @qcow2_detect_metadata_preallocation(ptr noundef %bs) #0 {
entry:
  %retval = alloca i32, align 4
  %bs.addr = alloca ptr, align 8
  %s = alloca ptr, align 8
  %i = alloca i64, align 8
  %end_cluster = alloca i64, align 8
  %cluster_count = alloca i64, align 8
  %threshold = alloca i64, align 8
  %file_length = alloca i64, align 8
  %real_allocation = alloca i64, align 8
  %real_clusters = alloca i64, align 8
  %_a20 = alloca i64, align 8
  %_b21 = alloca i64, align 8
  %tmp = alloca i64, align 8
  %refcount = alloca i64, align 8
  %ret = alloca i32, align 4
  store ptr %bs, ptr %bs.addr, align 8
  %0 = load ptr, ptr %bs.addr, align 8
  %opaque = getelementptr inbounds %struct.BlockDriverState, ptr %0, i32 0, i32 7
  %1 = load ptr, ptr %opaque, align 8
  store ptr %1, ptr %s, align 8
  store i64 0, ptr %cluster_count, align 8
  %2 = load ptr, ptr %s, align 8
  %lock = getelementptr inbounds %struct.BDRVQcow2State, ptr %2, i32 0, i32 28
  call void @qemu_co_mutex_assert_locked(ptr noundef %lock)
  %3 = load ptr, ptr %bs.addr, align 8
  %file = getelementptr inbounds %struct.BlockDriverState, ptr %3, i32 0, i32 31
  %4 = load ptr, ptr %file, align 8
  %bs1 = getelementptr inbounds %struct.BdrvChild, ptr %4, i32 0, i32 0
  %5 = load ptr, ptr %bs1, align 8
  %call = call i64 @bdrv_co_getlength(ptr noundef %5)
  store i64 %call, ptr %file_length, align 8
  %6 = load i64, ptr %file_length, align 8
  %cmp = icmp slt i64 %6, 0
  br i1 %cmp, label %if.then, label %if.end

if.then:                                          ; preds = %entry
  %7 = load i64, ptr %file_length, align 8
  %conv = trunc i64 %7 to i32
  store i32 %conv, ptr %retval, align 4
  br label %return

if.end:                                           ; preds = %entry
  %8 = load ptr, ptr %bs.addr, align 8
  %file2 = getelementptr inbounds %struct.BlockDriverState, ptr %8, i32 0, i32 31
  %9 = load ptr, ptr %file2, align 8
  %bs3 = getelementptr inbounds %struct.BdrvChild, ptr %9, i32 0, i32 0
  %10 = load ptr, ptr %bs3, align 8
  %call4 = call i64 @bdrv_co_get_allocated_file_size(ptr noundef %10)
  store i64 %call4, ptr %real_allocation, align 8
  %11 = load i64, ptr %real_allocation, align 8
  %cmp5 = icmp slt i64 %11, 0
  br i1 %cmp5, label %if.then7, label %if.end9

if.then7:                                         ; preds = %if.end
  %12 = load i64, ptr %real_allocation, align 8
  %conv8 = trunc i64 %12 to i32
  store i32 %conv8, ptr %retval, align 4
  br label %return

if.end9:                                          ; preds = %if.end
  %13 = load i64, ptr %real_allocation, align 8
  %14 = load ptr, ptr %s, align 8
  %cluster_size = getelementptr inbounds %struct.BDRVQcow2State, ptr %14, i32 0, i32 1
  %15 = load i32, ptr %cluster_size, align 4
  %conv10 = sext i32 %15 to i64
  %div = sdiv i64 %13, %conv10
  store i64 %div, ptr %real_clusters, align 8
  %16 = load i64, ptr %real_clusters, align 8
  %mul = mul i64 %16, 10
  %div11 = sdiv i64 %mul, 9
  store i64 %div11, ptr %_a20, align 8
  %17 = load i64, ptr %real_clusters, align 8
  %add = add i64 %17, 2
  store i64 %add, ptr %_b21, align 8
  %18 = load i64, ptr %_a20, align 8
  %19 = load i64, ptr %_b21, align 8
  %cmp12 = icmp sgt i64 %18, %19
  br i1 %cmp12, label %cond.true, label %cond.false

cond.true:                                        ; preds = %if.end9
  %20 = load i64, ptr %_a20, align 8
  br label %cond.end

cond.false:                                       ; preds = %if.end9
  %21 = load i64, ptr %_b21, align 8
  br label %cond.end

cond.end:                                         ; preds = %cond.false, %cond.true
  %cond = phi i64 [ %20, %cond.true ], [ %21, %cond.false ]
  store i64 %cond, ptr %tmp, align 8
  %22 = load i64, ptr %tmp, align 8
  store i64 %22, ptr %threshold, align 8
  %23 = load ptr, ptr %s, align 8
  %24 = load i64, ptr %file_length, align 8
  %call14 = call i64 @size_to_clusters(ptr noundef %23, i64 noundef %24)
  store i64 %call14, ptr %end_cluster, align 8
  store i64 0, ptr %i, align 8
  br label %for.cond

for.cond:                                         ; preds = %for.inc, %cond.end
  %25 = load i64, ptr %i, align 8
  %26 = load i64, ptr %end_cluster, align 8
  %cmp15 = icmp slt i64 %25, %26
  br i1 %cmp15, label %land.rhs, label %land.end

land.rhs:                                         ; preds = %for.cond
  %27 = load i64, ptr %cluster_count, align 8
  %28 = load i64, ptr %threshold, align 8
  %cmp17 = icmp slt i64 %27, %28
  br label %land.end

land.end:                                         ; preds = %land.rhs, %for.cond
  %29 = phi i1 [ false, %for.cond ], [ %cmp17, %land.rhs ]
  br i1 %29, label %for.body, label %for.end

for.body:                                         ; preds = %land.end
  %30 = load ptr, ptr %bs.addr, align 8
  %31 = load i64, ptr %i, align 8
  %call19 = call i32 @qcow2_get_refcount(ptr noundef %30, i64 noundef %31, ptr noundef %refcount)
  store i32 %call19, ptr %ret, align 4
  %32 = load i32, ptr %ret, align 4
  %cmp20 = icmp slt i32 %32, 0
  br i1 %cmp20, label %if.then22, label %if.end23

if.then22:                                        ; preds = %for.body
  %33 = load i32, ptr %ret, align 4
  store i32 %33, ptr %retval, align 4
  br label %return

if.end23:                                         ; preds = %for.body
  %34 = load i64, ptr %refcount, align 8
  %tobool = icmp ne i64 %34, 0
  %lnot = xor i1 %tobool, true
  %lnot24 = xor i1 %lnot, true
  %lnot.ext = zext i1 %lnot24 to i32
  %conv25 = sext i32 %lnot.ext to i64
  %35 = load i64, ptr %cluster_count, align 8
  %add26 = add i64 %35, %conv25
  store i64 %add26, ptr %cluster_count, align 8
  br label %for.inc

for.inc:                                          ; preds = %if.end23
  %36 = load i64, ptr %i, align 8
  %inc = add i64 %36, 1
  store i64 %inc, ptr %i, align 8
  br label %for.cond, !llvm.loop !50

for.end:                                          ; preds = %land.end
  %37 = load i64, ptr %cluster_count, align 8
  %38 = load i64, ptr %threshold, align 8
  %cmp27 = icmp sge i64 %37, %38
  %conv28 = zext i1 %cmp27 to i32
  store i32 %conv28, ptr %retval, align 4
  br label %return

return:                                           ; preds = %for.end, %if.then22, %if.then7, %if.then
  %39 = load i32, ptr %retval, align 4
  ret i32 %39
}