; Function Attrs: nounwind sspstrong uwtable
define dso_local i32 @qcow2_detect_metadata_preallocation(ptr noundef %bs) #0 {
entry:
  %refcount = alloca i64, align 8
  %opaque = getelementptr inbounds nuw i8, ptr %bs, i64 24
  %0 = load ptr, ptr %opaque, align 8
  %lock = getelementptr inbounds nuw i8, ptr %0, i64 160
  %1 = load atomic i32, ptr %lock monotonic, align 8
  %tobool.not.i = icmp eq i32 %1, 0
  br i1 %tobool.not.i, label %if.else.i, label %land.lhs.true.i

land.lhs.true.i:                                  ; preds = %entry
  %holder.i = getelementptr inbounds nuw i8, ptr %0, i64 200
  %2 = load ptr, ptr %holder.i, align 8
  %call.i = tail call ptr @qemu_coroutine_self() #17
  %cmp.i = icmp eq ptr %2, %call.i
  br i1 %cmp.i, label %qemu_co_mutex_assert_locked.exit, label %if.else.i

if.else.i:                                        ; preds = %land.lhs.true.i, %entry
  tail call void @__assert_fail(ptr noundef nonnull @.str.126, ptr noundef nonnull @.str.125, i32 noundef 84, ptr noundef nonnull @__PRETTY_FUNCTION__.qemu_co_mutex_assert_locked) #15
  unreachable

qemu_co_mutex_assert_locked.exit:                 ; preds = %land.lhs.true.i
  %file = getelementptr inbounds nuw i8, ptr %bs, i64 16840
  %3 = load ptr, ptr %file, align 8
  %4 = load ptr, ptr %3, align 8
  %call = tail call i64 @bdrv_co_getlength(ptr noundef %4) #17
  %cmp = icmp slt i64 %call, 0
  br i1 %cmp, label %if.then, label %if.end

if.then:                                          ; preds = %qemu_co_mutex_assert_locked.exit
  %conv = trunc i64 %call to i32
  br label %return

if.end:                                           ; preds = %qemu_co_mutex_assert_locked.exit
  %5 = load ptr, ptr %file, align 8
  %6 = load ptr, ptr %5, align 8
  %call4 = tail call i64 @bdrv_co_get_allocated_file_size(ptr noundef %6) #17
  %cmp5 = icmp slt i64 %call4, 0
  br i1 %cmp5, label %if.then7, label %if.end9

if.then7:                                         ; preds = %if.end
  %conv8 = trunc i64 %call4 to i32
  br label %return

if.end9:                                          ; preds = %if.end
  %cluster_size = getelementptr inbounds nuw i8, ptr %0, i64 4
  %7 = load i32, ptr %cluster_size, align 4
  %conv10 = sext i32 %7 to i64
  %div = sdiv i64 %call4, %conv10
  %mul = mul i64 %div, 10
  %div11 = sdiv i64 %mul, 9
  %add = add i64 %div, 2
  %cond = tail call i64 @llvm.smax.i64(i64 %div11, i64 %add)
  %.val = load i32, ptr %0, align 8
  %sub.i = add i32 %7, -1
  %conv.i = sext i32 %sub.i to i64
  %add.i = add i64 %call, %conv.i
  %sh_prom.i = zext nneg i32 %.val to i64
  %shr.i = lshr i64 %add.i, %sh_prom.i
  %cmp1521 = icmp sgt i64 %shr.i, 0
  %cmp1722 = icmp sgt i64 %cond, 0
  %8 = and i1 %cmp1521, %cmp1722
  br i1 %8, label %for.body, label %for.end

for.body:                                         ; preds = %if.end9, %if.end23
  %i.024 = phi i64 [ %inc, %if.end23 ], [ 0, %if.end9 ]
  %cluster_count.023 = phi i64 [ %add26, %if.end23 ], [ 0, %if.end9 ]
  %call19 = call i32 @qcow2_get_refcount(ptr noundef %bs, i64 noundef %i.024, ptr noundef nonnull %refcount)
  %cmp20 = icmp slt i32 %call19, 0
  br i1 %cmp20, label %return, label %if.end23

if.end23:                                         ; preds = %for.body
  %9 = load i64, ptr %refcount, align 8
  %tobool = icmp ne i64 %9, 0
  %conv25 = zext i1 %tobool to i64
  %add26 = add nuw nsw i64 %cluster_count.023, %conv25
  %inc = add nuw nsw i64 %i.024, 1
  %cmp15 = icmp slt i64 %inc, %shr.i
  %cmp17 = icmp slt i64 %add26, %cond
  %10 = select i1 %cmp15, i1 %cmp17, i1 false
  br i1 %10, label %for.body, label %for.end, !llvm.loop !53

for.end:                                          ; preds = %if.end23, %if.end9
  %cluster_count.0.lcssa = phi i64 [ 0, %if.end9 ], [ %add26, %if.end23 ]
  %cmp27 = icmp sge i64 %cluster_count.0.lcssa, %cond
  %conv28 = zext i1 %cmp27 to i32
  br label %return

return:                                           ; preds = %for.body, %for.end, %if.then7, %if.then
  %retval.0 = phi i32 [ %conv, %if.then ], [ %conv8, %if.then7 ], [ %conv28, %for.end ], [ %call19, %for.body ]
  ret i32 %retval.0
}